; Function Attrs: mustprogress nounwind uwtable
define hidden void @_ZN20SharedClassPathEntry21metaspace_pointers_doEP16MetaspaceClosure(ptr noundef nonnull align 8 dereferenceable(40) %0, ptr noundef %1) local_unnamed_addr #0 align 2 {
  %3 = getelementptr inbounds i8, ptr %0, i64 24
  %4 = tail call noundef ptr @_Z12AllocateHeapm8MEMFLAGSN17AllocFailStrategy13AllocFailEnumE(i64 noundef 40, i8 noundef zeroext 24, i32 noundef 0) #25
  %5 = getelementptr inbounds i8, ptr %4, i64 8
  store i32 2, ptr %5, align 8
  %6 = getelementptr inbounds i8, ptr %4, i64 16
  tail call void @llvm.memset.p0.i64(ptr noundef nonnull align 8 dereferenceable(16) %6, i8 0, i64 16, i1 false)
  %7 = getelementptr inbounds i8, ptr %4, i64 32
  store ptr %3, ptr %7, align 8
  store ptr getelementptr inbounds inrange(-16, 72) (i8, ptr @_ZTVN16MetaspaceClosure13OtherArrayRefIcEE, i64 16), ptr %4, align 8
  tail call void @_ZN16MetaspaceClosure9push_implEPNS_3RefE(ptr noundef nonnull align 8 dereferenceable(32) %1, ptr noundef nonnull %4) #25
  %8 = getelementptr inbounds i8, ptr %0, i64 32
  %9 = tail call noundef ptr @_Z12AllocateHeapm8MEMFLAGSN17AllocFailStrategy13AllocFailEnumE(i64 noundef 40, i8 noundef zeroext 24, i32 noundef 0) #25
  %10 = getelementptr inbounds i8, ptr %9, i64 8
  store i32 2, ptr %10, align 8
  %11 = getelementptr inbounds i8, ptr %9, i64 16
  tail call void @llvm.memset.p0.i64(ptr noundef nonnull align 8 dereferenceable(16) %11, i8 0, i64 16, i1 false)
  %12 = getelementptr inbounds i8, ptr %9, i64 32
  store ptr %8, ptr %12, align 8
  store ptr getelementptr inbounds inrange(-16, 72) (i8, ptr @_ZTVN16MetaspaceClosure13OtherArrayRefIhEE, i64 16), ptr %9, align 8
  tail call void @_ZN16MetaspaceClosure9push_implEPNS_3RefE(ptr noundef nonnull align 8 dereferenceable(32) %1, ptr noundef nonnull %9) #25
  ret void
}